Certificate:
    Data:
        Version: 3 (0x2)
        Serial Number: 1 (0x1)
    Signature Algorithm: sha1WithRSAEncryption
        Issuer: C=cn, ST=shanghai, L=shanghai, O=avplayer.org, OU=Certificate Agency of avplayer.org, CN=avplayer.org community CA Root/emailAddress=ca@avplayer.org
        Validity
            Not Before: Nov  5 14:46:41 2014 GMT
            Not After : Nov  4 14:46:41 2017 GMT
        Subject: C=cn, ST=shanghai, O=avplayer.org, OU=Certificate Agency of avplayer.org, CN=avplayer.org community CA Root/emailAddress=ca@avplayer.org
        Subject Public Key Info:
            Public Key Algorithm: rsaEncryption
                Public-Key: (512 bit)
                Modulus:
                    00:b2:1a:c7:0b:8a:17:8c:dc:1a:70:fc:f9:89:e9:
                    3d:2c:49:be:fa:67:c0:de:42:9e:e5:0e:95:de:d2:
                    19:7f:91:f0:5b:f1:49:a6:1d:07:dc:2c:0e:f5:3a:
                    0a:68:5b:0a:1d:bd:7b:59:2a:d4:98:3c:cd:ba:2b:
                    07:76:b1:d9:c5
                Exponent: 65537 (0x10001)
        X509v3 extensions:
            X509v3 Basic Constraints: 
                CA:FALSE
            Netscape Comment: 
                OpenSSL Generated Certificate
            X509v3 Subject Key Identifier: 
                E9:06:D4:F4:E5:30:CC:4A:1A:44:7D:63:82:43:B6:81:1E:D7:D6:54
            X509v3 Authority Key Identifier: 
                DirName:/C=cn/ST=shanghai/L=shanghai/O=avplayer.org/OU=Certificate Agency of avplayer.org/CN=avplayer.org community CA Root/emailAddress=ca@avplayer.org
                serial:C6:86:B3:0C:8F:B9:0B:61

    Signature Algorithm: sha1WithRSAEncryption
         6f:f2:d1:b7:cf:40:15:ea:0c:b9:80:a5:ff:74:b0:e3:42:65:
         fc:d0:70:5a:75:24:62:22:8e:d5:0e:d6:75:bc:56:a9:c7:08:
         e4:e1:48:c6:9a:cc:d5:46:1d:f9:a6:c5:3e:db:ce:61:59:a9:
         a7:c3:a7:da:9a:bf:6e:5e:19:fe:92:0e:7e:eb:7e:ed:58:3d:
         0b:b1:4e:c2:f9:df:57:cc:20:99:b1:42:e6:71:23:aa:6e:8d:
         cd:d7:d3:72:04:ad:4e:68:6d:41:68:fb:14:42:5f:0b:0b:6a:
         4b:94:ff:90:1a:56:9e:9f:c2:0f:d5:50:b1:5a:ca:b7:da:76:
         65:a1:91:00:a3:2c:5b:1b:d6:75:d4:39:df:c7:b5:14:dd:06:
         7d:31:d1:e8:6f:d0:da:bb:2e:7f:07:9e:4a:87:5a:33:bf:d0:
         29:69:e3:25:77:fa:97:21:4f:d8:bd:29:b4:ae:3e:c2:12:0f:
         5f:9e:ff:a7:54:61:95:3f:6f:5f:00:d3:96:22:65:5d:de:33:
         d3:aa:be:eb:ad:e9:aa:ba:a4:20:9c:75:9f:7a:1d:af:37:de:
         46:0c:d0:1f:24:4e:6a:50:61:1d:1b:20:3a:c8:4c:8d:0c:3d:
         89:71:8f:d1:8c:fe:b7:43:e8:49:33:85:ad:1b:f3:cc:11:c2:
         24:29:ed:de:3a:11:7a:0b:c0:be:5b:95:c0:30:20:34:eb:57:
         d2:f8:88:65:a2:8b:be:87:60:28:57:a0:fe:d7:ba:24:7f:66:
         41:b0:75:28:09:0b:d8:79:d5:3c:a0:d4:e7:7c:a5:d3:7e:4c:
         e2:1d:39:59:78:cd:d2:cc:35:0f:84:ff:96:5a:e8:18:a0:60:
         cf:ca:fc:9e:0c:65:58:61:6a:c6:b9:98:9a:47:20:7b:aa:3f:
         91:5b:14:3b:ee:f9:03:09:19:d0:42:2a:28:d3:7e:ef:06:ce:
         52:77:3a:56:08:75:3c:7d:ed:cf:b2:ef:5a:74:3b:a3:63:eb:
         39:b9:ae:9c:ca:7a:a9:9d:c9:92:e2:c8:37:56:a4:7b:87:21:
         53:cf:e6:0e:18:78:00:55:21:b5:8a:ce:22:d5:eb:e2:03:10:
         18:6a:bc:56:e3:b6:74:8b:61:75:27:00:d9:aa:af:3e:bd:0d:
         67:92:27:50:40:bc:b3:bf:60:67:07:f5:90:b6:44:f6:f3:37:
         96:2e:c2:42:8b:c1:41:32:96:64:6b:c5:ac:96:c7:1a:47:eb:
         6a:5a:71:b2:b6:3c:e8:62:e6:36:7d:ca:c5:f7:0e:5e:7d:49:
         28:e6:69:f5:40:0e:a0:47:e4:98:00:4f:e9:c8:93:e0:8b:41:
         29:a0:82:7a:d9:50:09:fc:09:f2:10:66:bd:c4:79:5a:08:e6:
         b3:f5:54:87:51:b5:86:15:f4:37:05:51:47:3b:0f:e0:99:85:
         f0:2f:95:b4:57:05:81:91:78:f8:09:58:54:1c:7c:13:2a:09:
         01:99:51:e8:10:f4:2f:51:95:83:0c:95:0e:d5:76:16:f3:f5:
         6e:fc:70:ed:2d:b4:51:a8:10:a8:c1:d1:b4:55:df:83:e5:21:
         00:a5:51:23:9b:b4:b7:6e:71:55:49:73:66:e6:02:e9:a4:af:
         2b:aa:ff:16:c0:e9:f7:f5:71:f8:29:2b:78:4e:d5:e9:6a:4d:
         e7:13:46:f4:af:77:4a:c3:cf:98:89:4c:ea:fe:9d:15:a8:84:
         2b:42:78:98:eb:80:64:41:b7:44:e4:01:e7:52:d0:11:36:56:
         f5:d7:3a:ea:e0:e5:5e:3c:24:44:64:59:3c:71:55:09:36:34:
         77:75:3b:73:ef:35:c0:13:c3:1d:6d:06:cf:a0:c5:81:e1:89:
         e4:50:cb:5f:98:06:d4:a6:6f:35:31:ec:ec:d7:63:50:6c:fa:
         e6:93:81:8f:ed:b6:92:6a:95:a5:3d:d6:bd:ac:8d:c4:11:66:
         67:8d:92:6e:4e:01:63:48:ad:88:d2:b4:43:08:d0:3d:69:c9:
         fd:4c:4b:31:eb:3d:d8:1d:5d:84:98:23:75:6d:56:e0:a5:62:
         7f:d3:88:0e:cb:e3:33:1a:64:f6:03:8a:91:6e:82:5c:e7:a0:
         c1:7b:25:4a:70:f9:93:3b:5f:c0:8b:90:a4:cb:d0:f5:a5:09:
         13:56:f4:78:37:bb:7a:d6:ef:e8:53:1b:d6:a9:10:a4:fd:49:
         cc:3c:f6:53:40:83:69:f4:0e:52:0a:19:fa:19:69:4f:c3:55:
         89:b6:85:ac:ce:7f:3b:0a:e5:1a:bd:a2:27:d1:b2:47:a5:fa:
         f5:9e:2f:06:56:f6:48:d5:92:79:c7:c1:64:5e:a3:9a:39:f8:
         ca:73:36:5d:56:8c:65:70:70:47:8a:54:1e:72:0a:d2:7d:d9:
         8c:9e:98:39:7e:28:c1:54:f5:a2:9a:a9:b5:f0:76:d8:54:4f:
         62:eb:06:4f:ad:d2:64:35:91:4c:19:ae:7f:4a:22:be:40:53:
         ff:65:f5:4b:e2:72:d3:68:9c:d8:3b:b0:6c:1a:73:2d:b1:84:
         b9:7b:3e:3d:75:37:d8:c7:ba:e4:97:e9:8b:8e:10:6a:ed:fd:
         1f:bc:02:99:08:b8:49:2d:c8:fb:17:df:37:a6:d3:20:d6:f6:
         3b:9b:e4:0f:92:c3:ce:5a:e1:c7:91:98:59:76:ec:ef:0c:2c:
         d9:2a:22:68:71:53:2f:65:cc:f6:e0:86:30:a9:8f:37
-----BEGIN CERTIFICATE-----
MIIHYjCCA0qgAwIBAgIBATANBgkqhkiG9w0BAQUFADCBwDELMAkGA1UEBhMCY24x
ETAPBgNVBAgMCHNoYW5naGFpMREwDwYDVQQHDAhzaGFuZ2hhaTEVMBMGA1UECgwM
YXZwbGF5ZXIub3JnMSswKQYDVQQLDCJDZXJ0aWZpY2F0ZSBBZ2VuY3kgb2YgYXZw
bGF5ZXIub3JnMScwJQYDVQQDDB5hdnBsYXllci5vcmcgY29tbXVuaXR5IENBIFJv
b3QxHjAcBgkqhkiG9w0BCQEWD2NhQGF2cGxheWVyLm9yZzAeFw0xNDExMDUxNDQ2
NDFaFw0xNzExMDQxNDQ2NDFaMIGtMQswCQYDVQQGEwJjbjERMA8GA1UECAwIc2hh
bmdoYWkxFTATBgNVBAoMDGF2cGxheWVyLm9yZzErMCkGA1UECwwiQ2VydGlmaWNh
dGUgQWdlbmN5IG9mIGF2cGxheWVyLm9yZzEnMCUGA1UEAwweYXZwbGF5ZXIub3Jn
IGNvbW11bml0eSBDQSBSb290MR4wHAYJKoZIhvcNAQkBFg9jYUBhdnBsYXllci5v
cmcwXDANBgkqhkiG9w0BAQEFAANLADBIAkEAshrHC4oXjNwacPz5iek9LEm++mfA
3kKe5Q6V3tIZf5HwW/FJph0H3CwO9ToKaFsKHb17WSrUmDzNuisHdrHZxQIDAQAB
o4IBPjCCATowCQYDVR0TBAIwADAsBglghkgBhvhCAQ0EHxYdT3BlblNTTCBHZW5l
cmF0ZWQgQ2VydGlmaWNhdGUwHQYDVR0OBBYEFOkG1PTlMMxKGkR9Y4JDtoEe19ZU
MIHfBgNVHSMEgdcwgdShgcakgcMwgcAxCzAJBgNVBAYTAmNuMREwDwYDVQQIDAhz
aGFuZ2hhaTERMA8GA1UEBwwIc2hhbmdoYWkxFTATBgNVBAoMDGF2cGxheWVyLm9y
ZzErMCkGA1UECwwiQ2VydGlmaWNhdGUgQWdlbmN5IG9mIGF2cGxheWVyLm9yZzEn
MCUGA1UEAwweYXZwbGF5ZXIub3JnIGNvbW11bml0eSBDQSBSb290MR4wHAYJKoZI
hvcNAQkBFg9jYUBhdnBsYXllci5vcmeCCQDGhrMMj7kLYTANBgkqhkiG9w0BAQUF
AAOCBAEAb/LRt89AFeoMuYCl/3Sw40Jl/NBwWnUkYiKO1Q7WdbxWqccI5OFIxprM
1UYd+abFPtvOYVmpp8On2pq/bl4Z/pIOfut+7Vg9C7FOwvnfV8wgmbFC5nEjqm6N
zdfTcgStTmhtQWj7FEJfCwtqS5T/kBpWnp/CD9VQsVrKt9p2ZaGRAKMsWxvWddQ5
38e1FN0GfTHR6G/Q2rsufweeSodaM7/QKWnjJXf6lyFP2L0ptK4+whIPX57/p1Rh
lT9vXwDTliJlXd4z06q+663pqrqkIJx1n3odrzfeRgzQHyROalBhHRsgOshMjQw9
iXGP0Yz+t0PoSTOFrRvzzBHCJCnt3joRegvAvluVwDAgNOtX0viIZaKLvodgKFeg
/te6JH9mQbB1KAkL2HnVPKDU53yl035M4h05WXjN0sw1D4T/llroGKBgz8r8ngxl
WGFqxrmYmkcge6o/kVsUO+75AwkZ0EIqKNN+7wbOUnc6Vgh1PH3tz7LvWnQ7o2Pr
ObmunMp6qZ3JkuLIN1ake4chU8/mDhh4AFUhtYrOItXr4gMQGGq8VuO2dIthdScA
2aqvPr0NZ5InUEC8s79gZwf1kLZE9vM3li7CQovBQTKWZGvFrJbHGkfralpxsrY8
6GLmNn3KxfcOXn1JKOZp9UAOoEfkmABP6ciT4ItBKaCCetlQCfwJ8hBmvcR5Wgjm
s/VUh1G1hhX0NwVRRzsP4JmF8C+VtFcFgZF4+AlYVBx8EyoJAZlR6BD0L1GVgwyV
DtV2FvP1bvxw7S20UagQqMHRtFXfg+UhAKVRI5u0t25xVUlzZuYC6aSvK6r/FsDp
9/Vx+CkreE7V6WpN5xNG9K93SsPPmIlM6v6dFaiEK0J4mOuAZEG3ROQB51LQETZW
9dc66uDlXjwkRGRZPHFVCTY0d3U7c+81wBPDHW0Gz6DFgeGJ5FDLX5gG1KZvNTHs
7NdjUGz65pOBj+22kmqVpT3WvayNxBFmZ42Sbk4BY0itiNK0QwjQPWnJ/UxLMes9
2B1dhJgjdW1W4KVif9OIDsvjMxpk9gOKkW6CXOegwXslSnD5kztfwIuQpMvQ9aUJ
E1b0eDe7etbv6FMb1qkQpP1JzDz2U0CDafQOUgoZ+hlpT8NVibaFrM5/OwrlGr2i
J9GyR6X69Z4vBlb2SNWSecfBZF6jmjn4ynM2XVaMZXBwR4pUHnIK0n3ZjJ6YOX4o
wVT1opqptfB22FRPYusGT63SZDWRTBmuf0oivkBT/2X1S+Jy02ic2DuwbBpzLbGE
uXs+PXU32Me65Jfpi44Qau39H7wCmQi4SS3I+xffN6bTINb2O5vkD5LDzlrhx5GY
WXbs7wws2SoiaHFTL2XM9uCGMKmPNw==
-----END CERTIFICATE-----
